; Function Attrs: nounwind uwtable
define range(i32 -1, 1) i32 @H5Pget_istore_k(i64 noundef %0, ptr noundef writeonly %1) local_unnamed_addr #0 {
  %3 = alloca [2 x i32], align 4
  %4 = load i8, ptr @H5_libinit_g, align 1
  %5 = trunc i8 %4 to i1
  %6 = load i8, ptr @H5_libterm_g, align 1
  %7 = trunc i8 %6 to i1
  %8 = select i1 %5, i1 true, i1 %7
  br i1 %8, label %16, label %9

9:                                                ; preds = %2
  %10 = tail call i32 @H5_init_library() #6
  %11 = icmp slt i32 %10, 0
  br i1 %11, label %12, label %16

12:                                               ; preds = %9
  %13 = load i64, ptr @H5E_FUNC_g, align 8
  %14 = load i64, ptr @H5E_CANTINIT_g, align 8
  %15 = tail call i32 (ptr, ptr, i32, i64, i64, ptr, ...) @H5E_printf_stack(ptr noundef nonnull @.str.1, ptr noundef nonnull @__func__.H5Pget_istore_k, i32 noundef 627, i64 noundef %13, i64 noundef %14, ptr noundef nonnull @.str.2) #6
  br label %.thread22

16:                                               ; preds = %9, %2
  %17 = tail call i32 @H5CX_push() #6
  %18 = icmp slt i32 %17, 0
  br i1 %18, label %19, label %23

19:                                               ; preds = %16
  %20 = load i64, ptr @H5E_FUNC_g, align 8
  %21 = load i64, ptr @H5E_CANTSET_g, align 8
  %22 = tail call i32 (ptr, ptr, i32, i64, i64, ptr, ...) @H5E_printf_stack(ptr noundef nonnull @.str.1, ptr noundef nonnull @__func__.H5Pget_istore_k, i32 noundef 627, i64 noundef %20, i64 noundef %21, ptr noundef nonnull @.str.3) #6
  br label %.thread22

23:                                               ; preds = %16
  %24 = tail call i32 @H5E_clear_stack() #6
  %25 = load i64, ptr @H5P_CLS_FILE_CREATE_ID_g, align 8
  %26 = tail call ptr @H5P_object_verify(i64 noundef %0, i64 noundef %25) #6
  %27 = icmp eq ptr %26, null
  br i1 %27, label %28, label %32

28:                                               ; preds = %23
  %29 = load i64, ptr @H5E_ID_g, align 8
  %30 = load i64, ptr @H5E_BADID_g, align 8
  %31 = tail call i32 (ptr, ptr, i32, i64, i64, ptr, ...) @H5E_printf_stack(ptr noundef nonnull @.str.1, ptr noundef nonnull @__func__.H5Pget_istore_k, i32 noundef 631, i64 noundef %29, i64 noundef %30, ptr noundef nonnull @.str.6) #6
  br label %.thread28

32:                                               ; preds = %23
  %.not = icmp eq ptr %1, null
  br i1 %.not, label %44, label %33

33:                                               ; preds = %32
  %34 = call i32 @H5P_get(ptr noundef nonnull %26, ptr noundef nonnull @.str.19, ptr noundef nonnull %3) #6
  %35 = icmp slt i32 %34, 0
  br i1 %35, label %36, label %40

36:                                               ; preds = %33
  %37 = load i64, ptr @H5E_PLIST_g, align 8
  %38 = load i64, ptr @H5E_CANTGET_g, align 8
  %39 = call i32 (ptr, ptr, i32, i64, i64, ptr, ...) @H5E_printf_stack(ptr noundef nonnull @.str.1, ptr noundef nonnull @__func__.H5Pget_istore_k, i32 noundef 636, i64 noundef %37, i64 noundef %38, ptr noundef nonnull @.str.20) #6
  br label %.thread28

40:                                               ; preds = %33
  %41 = getelementptr inbounds nuw i8, ptr %3, i64 4
  %42 = load i32, ptr %41, align 4
  store i32 %42, ptr %1, align 4
  br label %44

.thread28:                                        ; preds = %36, %28
  %43 = call i32 @H5CX_pop(i1 noundef zeroext true) #6
  br label %.thread22

44:                                               ; preds = %32, %40
  %45 = call i32 @H5CX_pop(i1 noundef zeroext true) #6
  br label %47

.thread22:                                        ; preds = %19, %12, %.thread28
  %46 = call i32 @H5E_dump_api_stack() #6
  br label %47

47:                                               ; preds = %44, %.thread22
  %.0111725 = phi i32 [ -1, %.thread22 ], [ 0, %44 ]
  ret i32 %.0111725
}